SF:/Users/kuratateharuki/Desktop/RUM/src/archiver.rs
FN:47,_RNvNtCs3v8MvUUnobG_3RUM8archiver13archiver_info
FN:54,_RNCNvNtCs3v8MvUUnobG_3RUM8archiver13archiver_info0B5_
FN:69,_RNvMNtCs3v8MvUUnobG_3RUM8archiverNtB2_12ArchiverOpts3new
FN:71,_RNCNvMNtCs3v8MvUUnobG_3RUM8archiverNtB4_12ArchiverOpts3new0B6_
FN:103,_RNvMNtCs3v8MvUUnobG_3RUM8archiverNtB2_12ArchiverOpts9dest_path
FN:135,_RNvNtNtCs3v8MvUUnobG_3RUM8archiver5testss_13test_archiver
FN:26,_RNvNtCs3v8MvUUnobG_3RUM8archiver15create_archiver
FN:82,_RNvMNtCs3v8MvUUnobG_3RUM8archiverNtB2_12ArchiverOpts6create
FN:98,_RNvMNtCs3v8MvUUnobG_3RUM8archiverNtB2_12ArchiverOpts7targets
FN:110,_RNvMNtCs3v8MvUUnobG_3RUM8archiverNtB2_12ArchiverOpts11destination
FNDA:0,_RNvNtCs3v8MvUUnobG_3RUM8archiver13archiver_info
FNDA:0,_RNCNvNtCs3v8MvUUnobG_3RUM8archiver13archiver_info0B5_
FNDA:0,_RNvMNtCs3v8MvUUnobG_3RUM8archiverNtB2_12ArchiverOpts3new
FNDA:0,_RNCNvMNtCs3v8MvUUnobG_3RUM8archiverNtB4_12ArchiverOpts3new0B6_
FNDA:0,_RNvMNtCs3v8MvUUnobG_3RUM8archiverNtB2_12ArchiverOpts9dest_path
FNDA:1,_RNvNtNtCs3v8MvUUnobG_3RUM8archiver5testss_13test_archiver
FNDA:10,_RNvNtCs3v8MvUUnobG_3RUM8archiver15create_archiver
FNDA:7,_RNvMNtCs3v8MvUUnobG_3RUM8archiverNtB2_12ArchiverOpts6create
FNDA:7,_RNvMNtCs3v8MvUUnobG_3RUM8archiverNtB2_12ArchiverOpts7targets
FNDA:7,_RNvMNtCs3v8MvUUnobG_3RUM8archiverNtB2_12ArchiverOpts11destination
FNF:10
FNH:5
DA:26,10
DA:27,10
DA:28,10
DA:29,10
DA:30,10
DA:31,1
DA:32,1
DA:33,1
DA:34,1
DA:35,1
DA:36,1
DA:37,1
DA:38,1
DA:39,1
DA:40,1
DA:43,0
DA:45,10
DA:47,0
DA:48,0
DA:49,0
DA:50,0
DA:51,0
DA:52,0
DA:53,0
DA:54,0
DA:55,0
DA:56,0
DA:57,0
DA:58,0
DA:69,0
DA:70,0
DA:71,0
DA:72,0
DA:73,0
DA:74,0
DA:75,0
DA:76,0
DA:77,0
DA:78,0
DA:79,0
DA:82,7
DA:83,7
DA:84,7
DA:85,7
DA:86,7
DA:87,7
DA:88,7
DA:89,7
DA:90,7
DA:91,7
DA:92,7
DA:93,7
DA:94,7
DA:95,7
DA:96,7
DA:98,7
DA:99,7
DA:100,7
DA:103,0
DA:104,0
DA:105,0
DA:110,7
DA:111,7
DA:112,7
DA:113,7
DA:114,0
DA:115,7
DA:116,7
DA:117,7
DA:118,3
DA:119,0
DA:120,3
DA:121,4
DA:122,0
DA:123,7
DA:124,7
DA:125,0
DA:127,7
DA:135,1
DA:136,1
DA:137,1
DA:138,1
DA:140,0
DA:143,1
DA:144,1
DA:145,1
DA:147,1
DA:148,1
DA:149,1
DA:151,1
DA:152,1
DA:153,1
DA:155,1
DA:156,1
DA:157,1
DA:159,1
DA:160,1
DA:161,1
DA:163,1
DA:164,1
DA:165,1
DA:167,1
DA:168,1
DA:169,1
DA:171,1
DA:172,1
DA:173,1
DA:175,1
DA:176,1
DA:177,1
DA:178,1
DA:179,1
DA:181,0
DA:183,0
DA:184,1
BRF:0
BRH:0
LF:117
LH:81
end_of_record
SF:/Users/kuratateharuki/Desktop/RUM/src/archiver/lha.rs
FN:8,_RNvXNtNtCs3v8MvUUnobG_3RUM8archiver3lhaNtB2_11LhaArchiverNtB4_8Archiver7perform
FN:11,_RNvXNtNtCs3v8MvUUnobG_3RUM8archiver3lhaNtB2_11LhaArchiverNtB4_8Archiver6format
FN:24,_RNvNtNtNtCs3v8MvUUnobG_3RUM8archiver3lha5testss_11test_format
FN:30,_RNvNtNtNtCs3v8MvUUnobG_3RUM8archiver3lha5testss_12test_archive
FNDA:1,_RNvXNtNtCs3v8MvUUnobG_3RUM8archiver3lhaNtB2_11LhaArchiverNtB4_8Archiver7perform
FNDA:2,_RNvXNtNtCs3v8MvUUnobG_3RUM8archiver3lhaNtB2_11LhaArchiverNtB4_8Archiver6format
FNDA:1,_RNvNtNtNtCs3v8MvUUnobG_3RUM8archiver3lha5testss_11test_format
FNDA:1,_RNvNtNtNtCs3v8MvUUnobG_3RUM8archiver3lha5testss_12test_archive
FNF:4
FNH:4
DA:8,1
DA:9,1
DA:10,1
DA:11,2
DA:12,2
DA:13,2
DA:24,1
DA:25,1
DA:26,1
DA:27,1
DA:30,1
DA:31,1
DA:32,1
DA:33,1
DA:34,1
DA:35,1
DA:36,1
DA:37,1
DA:38,1
DA:39,1
DA:40,1
DA:41,1
BRF:0
BRH:0
LF:22
LH:22
end_of_record
SF:/Users/kuratateharuki/Desktop/RUM/src/archiver/os/linux.rs
FN:8,_RNvNtNtNtCs3v8MvUUnobG_3RUM8archiver2os5linux6create
FNDA:23,_RNvNtNtNtCs3v8MvUUnobG_3RUM8archiver2os5linux6create
FNF:1
FNH:1
DA:8,23
DA:9,23
DA:10,23
DA:11,23
DA:12,23
DA:13,23
DA:14,23
DA:15,23
DA:16,23
DA:17,23
BRF:0
BRH:0
LF:10
LH:10
end_of_record
SF:/Users/kuratateharuki/Desktop/RUM/src/archiver/rar.rs
FN:8,_RNvXNtNtCs3v8MvUUnobG_3RUM8archiver3rarNtB2_11RarArchiverNtB4_8Archiver7perform
FN:11,_RNvXNtNtCs3v8MvUUnobG_3RUM8archiver3rarNtB2_11RarArchiverNtB4_8Archiver6format
FN:24,_RNvNtNtNtCs3v8MvUUnobG_3RUM8archiver3rar5testss_11test_format
FN:30,_RNvNtNtNtCs3v8MvUUnobG_3RUM8archiver3rar5testss_12test_archive
FNDA:1,_RNvXNtNtCs3v8MvUUnobG_3RUM8archiver3rarNtB2_11RarArchiverNtB4_8Archiver7perform
FNDA:2,_RNvXNtNtCs3v8MvUUnobG_3RUM8archiver3rarNtB2_11RarArchiverNtB4_8Archiver6format
FNDA:1,_RNvNtNtNtCs3v8MvUUnobG_3RUM8archiver3rar5testss_11test_format
FNDA:1,_RNvNtNtNtCs3v8MvUUnobG_3RUM8archiver3rar5testss_12test_archive
FNF:4
FNH:4
DA:8,1
DA:9,1
DA:10,1
DA:11,2
DA:12,2
DA:13,2
DA:24,1
DA:25,1
DA:26,1
DA:27,1
DA:30,1
DA:31,1
DA:32,1
DA:33,1
DA:34,1
DA:35,1
DA:36,1
DA:37,1
DA:38,1
DA:39,1
DA:40,1
DA:41,1
BRF:0
BRH:0
LF:22
LH:22
end_of_record
SF:/Users/kuratateharuki/Desktop/RUM/src/archiver/sevenz.rs
FN:13,_RNvXNtNtCs3v8MvUUnobG_3RUM8archiver6sevenzNtB2_14SevenZArchiverNtB4_8Archiver7perform
FN:20,_RNvXNtNtCs3v8MvUUnobG_3RUM8archiver6sevenzNtB2_14SevenZArchiverNtB4_8Archiver6format
FN:25,_RNvNtNtCs3v8MvUUnobG_3RUM8archiver6sevenz12process_file
FN:36,_RNvNtNtCs3v8MvUUnobG_3RUM8archiver6sevenz11process_dir
FN:50,_RNvNtNtCs3v8MvUUnobG_3RUM8archiver6sevenz17write_sevenz_impl
FN:69,_RNvNtNtCs3v8MvUUnobG_3RUM8archiver6sevenz12write_sevenz
FN:88,_RINvNtNtNtCs3v8MvUUnobG_3RUM8archiver6sevenz5tests8run_testNCNvB2_s_8test_zip0EB8_
FN:103,_RNCNvNtNtNtCs3v8MvUUnobG_3RUM8archiver6sevenz5testss_8test_zip0B9_
FN:118,_RNvNtNtNtCs3v8MvUUnobG_3RUM8archiver6sevenz5tests8teardown
FN:83,_RNvNtNtNtCs3v8MvUUnobG_3RUM8archiver6sevenz5testss_11test_format
FN:102,_RNvNtNtNtCs3v8MvUUnobG_3RUM8archiver6sevenz5testss_8test_zip
FNDA:1,_RNvXNtNtCs3v8MvUUnobG_3RUM8archiver6sevenzNtB2_14SevenZArchiverNtB4_8Archiver7perform
FNDA:3,_RNvXNtNtCs3v8MvUUnobG_3RUM8archiver6sevenzNtB2_14SevenZArchiverNtB4_8Archiver6format
FNDA:23,_RNvNtNtCs3v8MvUUnobG_3RUM8archiver6sevenz12process_file
FNDA:4,_RNvNtNtCs3v8MvUUnobG_3RUM8archiver6sevenz11process_dir
FNDA:1,_RNvNtNtCs3v8MvUUnobG_3RUM8archiver6sevenz17write_sevenz_impl
FNDA:1,_RNvNtNtCs3v8MvUUnobG_3RUM8archiver6sevenz12write_sevenz
FNDA:1,_RINvNtNtNtCs3v8MvUUnobG_3RUM8archiver6sevenz5tests8run_testNCNvB2_s_8test_zip0EB8_
FNDA:1,_RNCNvNtNtNtCs3v8MvUUnobG_3RUM8archiver6sevenz5testss_8test_zip0B9_
FNDA:1,_RNvNtNtNtCs3v8MvUUnobG_3RUM8archiver6sevenz5tests8teardown
FNDA:1,_RNvNtNtNtCs3v8MvUUnobG_3RUM8archiver6sevenz5testss_11test_format
FNDA:1,_RNvNtNtNtCs3v8MvUUnobG_3RUM8archiver6sevenz5testss_8test_zip
FNF:11
FNH:11
DA:13,1
DA:14,1
DA:15,0
DA:16,1
DA:18,1
DA:20,3
DA:21,3
DA:22,3
DA:25,23
DA:26,23
DA:27,23
DA:28,23
DA:29,23
DA:30,23
DA:31,0
DA:32,23
DA:33,23
DA:34,23
DA:36,4
DA:37,25
DA:38,25
DA:39,25
DA:40,25
DA:41,3
DA:42,22
DA:43,22
DA:44,0
DA:45,0
DA:47,4
DA:48,4
DA:50,1
DA:51,1
DA:52,1
DA:53,1
DA:54,1
DA:55,3
DA:56,2
DA:57,2
DA:58,1
DA:60,1
DA:63,1
DA:64,0
DA:65,1
DA:66,1
DA:67,1
DA:69,1
DA:70,1
DA:71,1
DA:72,0
DA:74,1
DA:83,1
DA:84,1
DA:85,1
DA:86,1
DA:88,1
DA:89,1
DA:90,1
DA:91,1
DA:92,1
DA:93,1
DA:94,1
DA:96,1
DA:97,0
DA:98,1
DA:99,1
DA:102,1
DA:103,1
DA:104,1
DA:105,1
DA:106,1
DA:107,1
DA:108,1
DA:109,1
DA:110,1
DA:111,1
DA:112,1
DA:113,1
DA:114,1
DA:115,1
DA:116,1
DA:118,1
DA:119,1
DA:120,1
BRF:0
BRH:0
LF:85
LH:78
end_of_record
SF:/Users/kuratateharuki/Desktop/RUM/src/archiver/tar.rs
FN:25,_RNCNvXNtNtCs3v8MvUUnobG_3RUM8archiver3tarNtB4_11TarArchiverNtB6_8Archiver7perform0B8_
FN:34,_RNCNvXs_NtNtCs3v8MvUUnobG_3RUM8archiver3tarNtB6_13TarGzArchiverNtB8_8Archiver7perform0Ba_
FN:43,_RNCNvXs0_NtNtCs3v8MvUUnobG_3RUM8archiver3tarNtB7_14TarBz2ArchiverNtB9_8Archiver7perform0Bb_
FN:52,_RNCNvXs1_NtNtCs3v8MvUUnobG_3RUM8archiver3tarNtB7_13TarXzArchiverNtB9_8Archiver7perform0Bb_
FN:63,_RNCNvXs2_NtNtCs3v8MvUUnobG_3RUM8archiver3tarNtB7_15TarZstdArchiverNtB9_8Archiver7perform0Bb_
FN:71,_RINvNtNtCs3v8MvUUnobG_3RUM8archiver3tar9write_tarNCNvXB2_NtB2_11TarArchiverNtB4_8Archiver7perform0NtNtCs9SwuKXpjJu9_3std2fs4FileEB6_
FN:71,_RINvNtNtCs3v8MvUUnobG_3RUM8archiver3tar9write_tarNCNvXs0_B2_NtB2_14TarBz2ArchiverNtB4_8Archiver7perform0INtNtCs47WbULU4UtQ_5bzip25write9BzEncoderNtNtCs9SwuKXpjJu9_3std2fs4FileEEB6_
FN:71,_RINvNtNtCs3v8MvUUnobG_3RUM8archiver3tar9write_tarNCNvXs1_B2_NtB2_13TarXzArchiverNtB4_8Archiver7perform0INtNtCs61y0Vbfv9G3_3xz25write9XzEncoderNtNtCs9SwuKXpjJu9_3std2fs4FileEEB6_
FN:71,_RINvNtNtCs3v8MvUUnobG_3RUM8archiver3tar9write_tarNCNvXs2_B2_NtB2_15TarZstdArchiverNtB4_8Archiver7perform0INtNtNtCs1DS9XJ93lyw_4zstd6stream5write7EncoderNtNtCs9SwuKXpjJu9_3std2fs4FileEEB6_
FN:71,_RINvNtNtCs3v8MvUUnobG_3RUM8archiver3tar9write_tarNCNvXs_B2_NtB2_13TarGzArchiverNtB4_8Archiver7perform0INtNtNtCsf3gZZvQVQ9n_6flate22gz5write9GzEncoderNtNtCs9SwuKXpjJu9_3std2fs4FileEEB6_
FN:82,_RINvNtNtCs3v8MvUUnobG_3RUM8archiver3tar14write_tar_implINtNtCs47WbULU4UtQ_5bzip25write9BzEncoderNtNtCs9SwuKXpjJu9_3std2fs4FileEEB6_
FN:82,_RINvNtNtCs3v8MvUUnobG_3RUM8archiver3tar14write_tar_implINtNtCs61y0Vbfv9G3_3xz25write9XzEncoderNtNtCs9SwuKXpjJu9_3std2fs4FileEEB6_
FN:82,_RINvNtNtCs3v8MvUUnobG_3RUM8archiver3tar14write_tar_implINtNtNtCs1DS9XJ93lyw_4zstd6stream5write7EncoderNtNtCs9SwuKXpjJu9_3std2fs4FileEEB6_
FN:82,_RINvNtNtCs3v8MvUUnobG_3RUM8archiver3tar14write_tar_implINtNtNtCsf3gZZvQVQ9n_6flate22gz5write9GzEncoderNtNtCs9SwuKXpjJu9_3std2fs4FileEEB6_
FN:82,_RINvNtNtCs3v8MvUUnobG_3RUM8archiver3tar14write_tar_implNtNtCs9SwuKXpjJu9_3std2fs4FileEB6_
FN:98,_RINvNtNtCs3v8MvUUnobG_3RUM8archiver3tar11process_dirINtNtCs47WbULU4UtQ_5bzip25write9BzEncoderNtNtCs9SwuKXpjJu9_3std2fs4FileEEB6_
FN:98,_RINvNtNtCs3v8MvUUnobG_3RUM8archiver3tar11process_dirINtNtCs61y0Vbfv9G3_3xz25write9XzEncoderNtNtCs9SwuKXpjJu9_3std2fs4FileEEB6_
FN:98,_RINvNtNtCs3v8MvUUnobG_3RUM8archiver3tar11process_dirINtNtNtCs1DS9XJ93lyw_4zstd6stream5write7EncoderNtNtCs9SwuKXpjJu9_3std2fs4FileEEB6_
FN:98,_RINvNtNtCs3v8MvUUnobG_3RUM8archiver3tar11process_dirINtNtNtCsf3gZZvQVQ9n_6flate22gz5write9GzEncoderNtNtCs9SwuKXpjJu9_3std2fs4FileEEB6_
FN:98,_RINvNtNtCs3v8MvUUnobG_3RUM8archiver3tar11process_dirNtNtCs9SwuKXpjJu9_3std2fs4FileEB6_
FN:115,_RINvNtNtCs3v8MvUUnobG_3RUM8archiver3tar12process_fileINtNtCs47WbULU4UtQ_5bzip25write9BzEncoderNtNtCs9SwuKXpjJu9_3std2fs4FileEEB6_
FN:115,_RINvNtNtCs3v8MvUUnobG_3RUM8archiver3tar12process_fileINtNtCs61y0Vbfv9G3_3xz25write9XzEncoderNtNtCs9SwuKXpjJu9_3std2fs4FileEEB6_
FN:115,_RINvNtNtCs3v8MvUUnobG_3RUM8archiver3tar12process_fileINtNtNtCs1DS9XJ93lyw_4zstd6stream5write7EncoderNtNtCs9SwuKXpjJu9_3std2fs4FileEEB6_
FN:115,_RINvNtNtCs3v8MvUUnobG_3RUM8archiver3tar12process_fileINtNtNtCsf3gZZvQVQ9n_6flate22gz5write9GzEncoderNtNtCs9SwuKXpjJu9_3std2fs4FileEEB6_
FN:115,_RINvNtNtCs3v8MvUUnobG_3RUM8archiver3tar12process_fileNtNtCs9SwuKXpjJu9_3std2fs4FileEB6_
FN:215,_RNvNtNtNtCs3v8MvUUnobG_3RUM8archiver3tar5tests8teardown
FN:145,_RNvNtNtNtCs3v8MvUUnobG_3RUM8archiver3tar5testss_8test_tar
FN:160,_RNvNtNtNtCs3v8MvUUnobG_3RUM8archiver3tar5testss_10test_targz
FN:174,_RNvNtNtNtCs3v8MvUUnobG_3RUM8archiver3tar5testss_11test_tarbz2
FN:188,_RNvNtNtNtCs3v8MvUUnobG_3RUM8archiver3tar5testss_10test_tarxz
FN:202,_RNvNtNtNtCs3v8MvUUnobG_3RUM8archiver3tar5testss_12test_tarzstd
FN:24,_RNvXNtNtCs3v8MvUUnobG_3RUM8archiver3tarNtB2_11TarArchiverNtB4_8Archiver7perform
FN:27,_RNvXNtNtCs3v8MvUUnobG_3RUM8archiver3tarNtB2_11TarArchiverNtB4_8Archiver6format
FN:33,_RNvXs_NtNtCs3v8MvUUnobG_3RUM8archiver3tarNtB4_13TarGzArchiverNtB6_8Archiver7perform
FN:36,_RNvXs_NtNtCs3v8MvUUnobG_3RUM8archiver3tarNtB4_13TarGzArchiverNtB6_8Archiver6format
FN:42,_RNvXs0_NtNtCs3v8MvUUnobG_3RUM8archiver3tarNtB5_14TarBz2ArchiverNtB7_8Archiver7perform
FN:45,_RNvXs0_NtNtCs3v8MvUUnobG_3RUM8archiver3tarNtB5_14TarBz2ArchiverNtB7_8Archiver6format
FN:51,_RNvXs1_NtNtCs3v8MvUUnobG_3RUM8archiver3tarNtB5_13TarXzArchiverNtB7_8Archiver7perform
FN:55,_RNvXs1_NtNtCs3v8MvUUnobG_3RUM8archiver3tarNtB5_13TarXzArchiverNtB7_8Archiver6format
FN:61,_RNvXs2_NtNtCs3v8MvUUnobG_3RUM8archiver3tarNtB5_15TarZstdArchiverNtB7_8Archiver7perform
FN:66,_RNvXs2_NtNtCs3v8MvUUnobG_3RUM8archiver3tarNtB5_15TarZstdArchiverNtB7_8Archiver6format
FN:132,_RINvNtNtNtCs3v8MvUUnobG_3RUM8archiver3tar5tests8run_testNCNvB2_s_10test_targz0EB8_
FN:132,_RINvNtNtNtCs3v8MvUUnobG_3RUM8archiver3tar5tests8run_testNCNvB2_s_10test_tarxz0EB8_
FN:132,_RINvNtNtNtCs3v8MvUUnobG_3RUM8archiver3tar5tests8run_testNCNvB2_s_11test_tarbz20EB8_
FN:132,_RINvNtNtNtCs3v8MvUUnobG_3RUM8archiver3tar5tests8run_testNCNvB2_s_12test_tarzstd0EB8_
FN:132,_RINvNtNtNtCs3v8MvUUnobG_3RUM8archiver3tar5tests8run_testNCNvB2_s_8test_tar0EB8_
FN:146,_RNCNvNtNtNtCs3v8MvUUnobG_3RUM8archiver3tar5testss_8test_tar0B9_
FN:161,_RNCNvNtNtNtCs3v8MvUUnobG_3RUM8archiver3tar5testss_10test_targz0B9_
FN:175,_RNCNvNtNtNtCs3v8MvUUnobG_3RUM8archiver3tar5testss_11test_tarbz20B9_
FN:189,_RNCNvNtNtNtCs3v8MvUUnobG_3RUM8archiver3tar5testss_10test_tarxz0B9_
FN:203,_RNCNvNtNtNtCs3v8MvUUnobG_3RUM8archiver3tar5testss_12test_tarzstd0B9_
FNDA:1,_RNCNvXNtNtCs3v8MvUUnobG_3RUM8archiver3tarNtB4_11TarArchiverNtB6_8Archiver7perform0B8_
FNDA:1,_RNCNvXs_NtNtCs3v8MvUUnobG_3RUM8archiver3tarNtB6_13TarGzArchiverNtB8_8Archiver7perform0Ba_
FNDA:1,_RNCNvXs0_NtNtCs3v8MvUUnobG_3RUM8archiver3tarNtB7_14TarBz2ArchiverNtB9_8Archiver7perform0Bb_
FNDA:1,_RNCNvXs1_NtNtCs3v8MvUUnobG_3RUM8archiver3tarNtB7_13TarXzArchiverNtB9_8Archiver7perform0Bb_
FNDA:1,_RNCNvXs2_NtNtCs3v8MvUUnobG_3RUM8archiver3tarNtB7_15TarZstdArchiverNtB9_8Archiver7perform0Bb_
FNDA:1,_RINvNtNtCs3v8MvUUnobG_3RUM8archiver3tar9write_tarNCNvXB2_NtB2_11TarArchiverNtB4_8Archiver7perform0NtNtCs9SwuKXpjJu9_3std2fs4FileEB6_
FNDA:1,_RINvNtNtCs3v8MvUUnobG_3RUM8archiver3tar9write_tarNCNvXs0_B2_NtB2_14TarBz2ArchiverNtB4_8Archiver7perform0INtNtCs47WbULU4UtQ_5bzip25write9BzEncoderNtNtCs9SwuKXpjJu9_3std2fs4FileEEB6_
FNDA:1,_RINvNtNtCs3v8MvUUnobG_3RUM8archiver3tar9write_tarNCNvXs1_B2_NtB2_13TarXzArchiverNtB4_8Archiver7perform0INtNtCs61y0Vbfv9G3_3xz25write9XzEncoderNtNtCs9SwuKXpjJu9_3std2fs4FileEEB6_
FNDA:1,_RINvNtNtCs3v8MvUUnobG_3RUM8archiver3tar9write_tarNCNvXs2_B2_NtB2_15TarZstdArchiverNtB4_8Archiver7perform0INtNtNtCs1DS9XJ93lyw_4zstd6stream5write7EncoderNtNtCs9SwuKXpjJu9_3std2fs4FileEEB6_
FNDA:1,_RINvNtNtCs3v8MvUUnobG_3RUM8archiver3tar9write_tarNCNvXs_B2_NtB2_13TarGzArchiverNtB4_8Archiver7perform0INtNtNtCsf3gZZvQVQ9n_6flate22gz5write9GzEncoderNtNtCs9SwuKXpjJu9_3std2fs4FileEEB6_
FNDA:1,_RINvNtNtCs3v8MvUUnobG_3RUM8archiver3tar14write_tar_implINtNtCs47WbULU4UtQ_5bzip25write9BzEncoderNtNtCs9SwuKXpjJu9_3std2fs4FileEEB6_
FNDA:1,_RINvNtNtCs3v8MvUUnobG_3RUM8archiver3tar14write_tar_implINtNtCs61y0Vbfv9G3_3xz25write9XzEncoderNtNtCs9SwuKXpjJu9_3std2fs4FileEEB6_
FNDA:1,_RINvNtNtCs3v8MvUUnobG_3RUM8archiver3tar14write_tar_implINtNtNtCs1DS9XJ93lyw_4zstd6stream5write7EncoderNtNtCs9SwuKXpjJu9_3std2fs4FileEEB6_
FNDA:1,_RINvNtNtCs3v8MvUUnobG_3RUM8archiver3tar14write_tar_implINtNtNtCsf3gZZvQVQ9n_6flate22gz5write9GzEncoderNtNtCs9SwuKXpjJu9_3std2fs4FileEEB6_
FNDA:1,_RINvNtNtCs3v8MvUUnobG_3RUM8archiver3tar14write_tar_implNtNtCs9SwuKXpjJu9_3std2fs4FileEB6_
FNDA:4,_RINvNtNtCs3v8MvUUnobG_3RUM8archiver3tar11process_dirINtNtCs47WbULU4UtQ_5bzip25write9BzEncoderNtNtCs9SwuKXpjJu9_3std2fs4FileEEB6_
FNDA:4,_RINvNtNtCs3v8MvUUnobG_3RUM8archiver3tar11process_dirINtNtCs61y0Vbfv9G3_3xz25write9XzEncoderNtNtCs9SwuKXpjJu9_3std2fs4FileEEB6_
FNDA:4,_RINvNtNtCs3v8MvUUnobG_3RUM8archiver3tar11process_dirINtNtNtCs1DS9XJ93lyw_4zstd6stream5write7EncoderNtNtCs9SwuKXpjJu9_3std2fs4FileEEB6_
FNDA:4,_RINvNtNtCs3v8MvUUnobG_3RUM8archiver3tar11process_dirINtNtNtCsf3gZZvQVQ9n_6flate22gz5write9GzEncoderNtNtCs9SwuKXpjJu9_3std2fs4FileEEB6_
FNDA:4,_RINvNtNtCs3v8MvUUnobG_3RUM8archiver3tar11process_dirNtNtCs9SwuKXpjJu9_3std2fs4FileEB6_
FNDA:23,_RINvNtNtCs3v8MvUUnobG_3RUM8archiver3tar12process_fileINtNtCs47WbULU4UtQ_5bzip25write9BzEncoderNtNtCs9SwuKXpjJu9_3std2fs4FileEEB6_
FNDA:23,_RINvNtNtCs3v8MvUUnobG_3RUM8archiver3tar12process_fileINtNtCs61y0Vbfv9G3_3xz25write9XzEncoderNtNtCs9SwuKXpjJu9_3std2fs4FileEEB6_
FNDA:23,_RINvNtNtCs3v8MvUUnobG_3RUM8archiver3tar12process_fileINtNtNtCs1DS9XJ93lyw_4zstd6stream5write7EncoderNtNtCs9SwuKXpjJu9_3std2fs4FileEEB6_
FNDA:23,_RINvNtNtCs3v8MvUUnobG_3RUM8archiver3tar12process_fileINtNtNtCsf3gZZvQVQ9n_6flate22gz5write9GzEncoderNtNtCs9SwuKXpjJu9_3std2fs4FileEEB6_
FNDA:23,_RINvNtNtCs3v8MvUUnobG_3RUM8archiver3tar12process_fileNtNtCs9SwuKXpjJu9_3std2fs4FileEB6_
FNDA:5,_RNvNtNtNtCs3v8MvUUnobG_3RUM8archiver3tar5tests8teardown
FNDA:1,_RNvNtNtNtCs3v8MvUUnobG_3RUM8archiver3tar5testss_8test_tar
FNDA:1,_RNvNtNtNtCs3v8MvUUnobG_3RUM8archiver3tar5testss_10test_targz
FNDA:1,_RNvNtNtNtCs3v8MvUUnobG_3RUM8archiver3tar5testss_11test_tarbz2
FNDA:1,_RNvNtNtNtCs3v8MvUUnobG_3RUM8archiver3tar5testss_10test_tarxz
FNDA:1,_RNvNtNtNtCs3v8MvUUnobG_3RUM8archiver3tar5testss_12test_tarzstd
FNDA:1,_RNvXNtNtCs3v8MvUUnobG_3RUM8archiver3tarNtB2_11TarArchiverNtB4_8Archiver7perform
FNDA:2,_RNvXNtNtCs3v8MvUUnobG_3RUM8archiver3tarNtB2_11TarArchiverNtB4_8Archiver6format
FNDA:1,_RNvXs_NtNtCs3v8MvUUnobG_3RUM8archiver3tarNtB4_13TarGzArchiverNtB6_8Archiver7perform
FNDA:2,_RNvXs_NtNtCs3v8MvUUnobG_3RUM8archiver3tarNtB4_13TarGzArchiverNtB6_8Archiver6format
FNDA:1,_RNvXs0_NtNtCs3v8MvUUnobG_3RUM8archiver3tarNtB5_14TarBz2ArchiverNtB7_8Archiver7perform
FNDA:2,_RNvXs0_NtNtCs3v8MvUUnobG_3RUM8archiver3tarNtB5_14TarBz2ArchiverNtB7_8Archiver6format
FNDA:1,_RNvXs1_NtNtCs3v8MvUUnobG_3RUM8archiver3tarNtB5_13TarXzArchiverNtB7_8Archiver7perform
FNDA:2,_RNvXs1_NtNtCs3v8MvUUnobG_3RUM8archiver3tarNtB5_13TarXzArchiverNtB7_8Archiver6format
FNDA:1,_RNvXs2_NtNtCs3v8MvUUnobG_3RUM8archiver3tarNtB5_15TarZstdArchiverNtB7_8Archiver7perform
FNDA:2,_RNvXs2_NtNtCs3v8MvUUnobG_3RUM8archiver3tarNtB5_15TarZstdArchiverNtB7_8Archiver6format
FNDA:1,_RINvNtNtNtCs3v8MvUUnobG_3RUM8archiver3tar5tests8run_testNCNvB2_s_10test_targz0EB8_
FNDA:1,_RINvNtNtNtCs3v8MvUUnobG_3RUM8archiver3tar5tests8run_testNCNvB2_s_10test_tarxz0EB8_
FNDA:1,_RINvNtNtNtCs3v8MvUUnobG_3RUM8archiver3tar5tests8run_testNCNvB2_s_11test_tarbz20EB8_
FNDA:1,_RINvNtNtNtCs3v8MvUUnobG_3RUM8archiver3tar5tests8run_testNCNvB2_s_12test_tarzstd0EB8_
FNDA:1,_RINvNtNtNtCs3v8MvUUnobG_3RUM8archiver3tar5tests8run_testNCNvB2_s_8test_tar0EB8_
FNDA:1,_RNCNvNtNtNtCs3v8MvUUnobG_3RUM8archiver3tar5testss_8test_tar0B9_
FNDA:1,_RNCNvNtNtNtCs3v8MvUUnobG_3RUM8archiver3tar5testss_10test_targz0B9_
FNDA:1,_RNCNvNtNtNtCs3v8MvUUnobG_3RUM8archiver3tar5testss_11test_tarbz20B9_
FNDA:1,_RNCNvNtNtNtCs3v8MvUUnobG_3RUM8archiver3tar5testss_10test_tarxz0B9_
FNDA:1,_RNCNvNtNtNtCs3v8MvUUnobG_3RUM8archiver3tar5testss_12test_tarzstd0B9_
FNF:31
FNH:31
DA:24,1
DA:25,1
DA:26,1
DA:27,2
DA:28,2
DA:29,2
DA:33,1
DA:34,1
DA:35,1
DA:36,2
DA:37,2
DA:38,2
DA:42,1
DA:43,1
DA:44,1
DA:45,2
DA:46,2
DA:47,2
DA:51,1
DA:52,1
DA:53,1
DA:55,2
DA:56,2
DA:57,2
DA:61,1
DA:62,1
DA:63,1
DA:64,1
DA:66,2
DA:67,2
DA:68,2
DA:71,5
DA:72,5
DA:73,5
DA:74,0
DA:75,5
DA:76,5
DA:77,5
DA:80,5
DA:82,5
DA:83,5
DA:84,15
DA:85,10
DA:86,10
DA:87,5
DA:89,5
DA:92,5
DA:93,0
DA:94,5
DA:95,5
DA:96,5
DA:98,20
DA:99,20
DA:100,0
DA:101,20
DA:102,125
DA:103,125
DA:104,125
DA:105,125
DA:106,15
DA:107,110
DA:108,110
DA:109,0
DA:110,0
DA:112,20
DA:113,20
DA:115,115
DA:116,115
DA:117,0
DA:119,115
DA:121,115
DA:132,5
DA:133,5
DA:134,5
DA:135,5
DA:136,5
DA:137,5
DA:138,5
DA:139,5
DA:140,0
DA:142,5
DA:145,1
DA:146,1
DA:147,1
DA:148,1
DA:149,1
DA:150,1
DA:151,1
DA:152,1
DA:153,1
DA:154,1
DA:155,1
DA:156,1
DA:160,1
DA:161,1
DA:162,1
DA:163,1
DA:164,1
DA:165,1
DA:166,1
DA:167,1
DA:168,1
DA:169,1
DA:170,1
DA:171,1
DA:174,1
DA:175,1
DA:176,1
DA:177,1
DA:178,1
DA:179,1
DA:180,1
DA:181,1
DA:182,1
DA:183,1
DA:184,1
DA:185,1
DA:188,1
DA:189,1
DA:190,1
DA:191,1
DA:192,1
DA:193,1
DA:194,1
DA:195,1
DA:196,1
DA:197,1
DA:198,1
DA:199,1
DA:202,1
DA:203,1
DA:204,1
DA:205,1
DA:206,1
DA:207,1
DA:208,1
DA:209,1
DA:210,1
DA:211,1
DA:212,1
DA:213,1
DA:215,5
DA:216,5
DA:217,5
BRF:0
BRH:0
LF:159
LH:152
end_of_record
SF:/Users/kuratateharuki/Desktop/RUM/src/archiver/zip.rs
FN:105,_RNvNtNtNtCs3v8MvUUnobG_3RUM8archiver3zip5tests8teardown
FN:95,_RNvNtNtNtCs3v8MvUUnobG_3RUM8archiver3zip5testss_8test_zip
FN:20,_RNvXNtNtCs3v8MvUUnobG_3RUM8archiver3zipNtB2_11ZipArchiverNtB4_8Archiver7perform
FN:29,_RNvXNtNtCs3v8MvUUnobG_3RUM8archiver3zipNtB2_11ZipArchiverNtB4_8Archiver6format
FN:61,_RNvNtNtCs3v8MvUUnobG_3RUM8archiver3zip12write_to_zip
FN:34,_RINvNtNtCs3v8MvUUnobG_3RUM8archiver3zip11process_dirNtNtCs9SwuKXpjJu9_3std2fs4FileEB6_
FN:48,_RINvNtNtCs3v8MvUUnobG_3RUM8archiver3zip12process_fileNtNtCs9SwuKXpjJu9_3std2fs4FileEB6_
FN:81,_RINvNtNtNtCs3v8MvUUnobG_3RUM8archiver3zip5tests8run_testNCNvB2_s_8test_zip0EB8_
FN:96,_RNCNvNtNtNtCs3v8MvUUnobG_3RUM8archiver3zip5testss_8test_zip0B9_
FNDA:1,_RNvNtNtNtCs3v8MvUUnobG_3RUM8archiver3zip5tests8teardown
FNDA:1,_RNvNtNtNtCs3v8MvUUnobG_3RUM8archiver3zip5testss_8test_zip
FNDA:1,_RNvXNtNtCs3v8MvUUnobG_3RUM8archiver3zipNtB2_11ZipArchiverNtB4_8Archiver7perform
FNDA:2,_RNvXNtNtCs3v8MvUUnobG_3RUM8archiver3zipNtB2_11ZipArchiverNtB4_8Archiver6format
FNDA:1,_RNvNtNtCs3v8MvUUnobG_3RUM8archiver3zip12write_to_zip
FNDA:4,_RINvNtNtCs3v8MvUUnobG_3RUM8archiver3zip11process_dirNtNtCs9SwuKXpjJu9_3std2fs4FileEB6_
FNDA:23,_RINvNtNtCs3v8MvUUnobG_3RUM8archiver3zip12process_fileNtNtCs9SwuKXpjJu9_3std2fs4FileEB6_
FNDA:1,_RINvNtNtNtCs3v8MvUUnobG_3RUM8archiver3zip5tests8run_testNCNvB2_s_8test_zip0EB8_
FNDA:1,_RNCNvNtNtNtCs3v8MvUUnobG_3RUM8archiver3zip5testss_8test_zip0B9_
FNF:9
FNH:9
DA:20,1
DA:21,1
DA:22,0
DA:23,1
DA:24,1
DA:27,1
DA:29,2
DA:30,2
DA:31,2
DA:34,4
DA:35,25
DA:36,25
DA:37,25
DA:38,25
DA:39,3
DA:40,22
DA:41,22
DA:42,0
DA:43,0
DA:45,4
DA:46,4
DA:48,23
DA:49,23
DA:50,23
DA:51,23
DA:52,0
DA:53,23
DA:54,23
DA:55,23
DA:56,0
DA:57,23
DA:58,23
DA:59,23
DA:61,1
DA:62,1
DA:63,3
DA:64,2
DA:65,2
DA:66,1
DA:68,1
DA:71,1
DA:72,0
DA:73,1
DA:74,1
DA:75,1
DA:81,1
DA:82,1
DA:83,1
DA:84,1
DA:85,1
DA:86,1
DA:87,1
DA:89,1
DA:90,0
DA:91,1
DA:92,1
DA:95,1
DA:96,1
DA:97,1
DA:98,1
DA:99,1
DA:100,1
DA:101,1
DA:102,1
DA:103,1
DA:105,1
DA:106,1
DA:107,1
BRF:0
BRH:0
LF:70
LH:63
end_of_record
SF:/Users/kuratateharuki/Desktop/RUM/src/cli.rs
FN:13,_RNCNvXs1_NtCs3v8MvUUnobG_3RUM3cliNtB7_7CliOptsNtNtCs9aXX4TSuLtv_12clap_builder6derive14FromArgMatches27update_from_arg_matches_mut0B9_
FN:17,_RNCNvXs1_NtCs3v8MvUUnobG_3RUM3cliNtB7_7CliOptsNtNtCs9aXX4TSuLtv_12clap_builder6derive14FromArgMatches27update_from_arg_matches_muts_0B9_
FN:19,_RNCNvXs1_NtCs3v8MvUUnobG_3RUM3cliNtB7_7CliOptsNtNtCs9aXX4TSuLtv_12clap_builder6derive14FromArgMatches27update_from_arg_matches_muts0_0B9_
FN:21,_RNCNvXs1_NtCs3v8MvUUnobG_3RUM3cliNtB7_7CliOptsNtNtCs9aXX4TSuLtv_12clap_builder6derive14FromArgMatches27update_from_arg_matches_muts1_0B9_
FN:23,_RNCNvXs1_NtCs3v8MvUUnobG_3RUM3cliNtB7_7CliOptsNtNtCs9aXX4TSuLtv_12clap_builder6derive14FromArgMatches27update_from_arg_matches_muts2_0B9_
FN:25,_RNCNvXs1_NtCs3v8MvUUnobG_3RUM3cliNtB7_7CliOptsNtNtCs9aXX4TSuLtv_12clap_builder6derive14FromArgMatches27update_from_arg_matches_muts3_0B9_
FN:12,_RNCNvXs2_NtCs3v8MvUUnobG_3RUM3cliNtB7_7CliOptsNtNtCs9aXX4TSuLtv_12clap_builder6derive4Args23augment_args_for_update0B9_
FN:16,_RNCNvXs2_NtCs3v8MvUUnobG_3RUM3cliNtB7_7CliOptsNtNtCs9aXX4TSuLtv_12clap_builder6derive4Args23augment_args_for_updates_0B9_
FN:18,_RNCNvXs2_NtCs3v8MvUUnobG_3RUM3cliNtB7_7CliOptsNtNtCs9aXX4TSuLtv_12clap_builder6derive4Args23augment_args_for_updates0_0B9_
FN:20,_RNCNvXs2_NtCs3v8MvUUnobG_3RUM3cliNtB7_7CliOptsNtNtCs9aXX4TSuLtv_12clap_builder6derive4Args23augment_args_for_updates1_0B9_
FN:29,_RNvMNtCs3v8MvUUnobG_3RUM3cliNtB2_7CliOpts8run_mode
FN:47,_RNvNtCs3v8MvUUnobG_3RUM3cli20is_all_args_archives
FN:48,_RNCNvNtCs3v8MvUUnobG_3RUM3cli20is_all_args_archives0B5_
FN:13,_RNCNvXs1_NtCs3v8MvUUnobG_3RUM3cliNtB7_7CliOptsNtNtCs9aXX4TSuLtv_12clap_builder6derive14FromArgMatches20from_arg_matches_mut0B9_
FN:17,_RNCNvXs1_NtCs3v8MvUUnobG_3RUM3cliNtB7_7CliOptsNtNtCs9aXX4TSuLtv_12clap_builder6derive14FromArgMatches20from_arg_matches_muts_0B9_
FN:19,_RNCNvXs1_NtCs3v8MvUUnobG_3RUM3cliNtB7_7CliOptsNtNtCs9aXX4TSuLtv_12clap_builder6derive14FromArgMatches20from_arg_matches_muts0_0B9_
FN:21,_RNCNvXs1_NtCs3v8MvUUnobG_3RUM3cliNtB7_7CliOptsNtNtCs9aXX4TSuLtv_12clap_builder6derive14FromArgMatches20from_arg_matches_muts1_0B9_
FN:23,_RNCNvXs1_NtCs3v8MvUUnobG_3RUM3cliNtB7_7CliOptsNtNtCs9aXX4TSuLtv_12clap_builder6derive14FromArgMatches20from_arg_matches_muts2_0B9_
FN:25,_RNCNvXs1_NtCs3v8MvUUnobG_3RUM3cliNtB7_7CliOptsNtNtCs9aXX4TSuLtv_12clap_builder6derive14FromArgMatches20from_arg_matches_muts3_0B9_
FN:12,_RNCNvXs2_NtCs3v8MvUUnobG_3RUM3cliNtB7_7CliOptsNtNtCs9aXX4TSuLtv_12clap_builder6derive4Args12augment_args0B9_
FN:16,_RNCNvXs2_NtCs3v8MvUUnobG_3RUM3cliNtB7_7CliOptsNtNtCs9aXX4TSuLtv_12clap_builder6derive4Args12augment_argss_0B9_
FN:18,_RNCNvXs2_NtCs3v8MvUUnobG_3RUM3cliNtB7_7CliOptsNtNtCs9aXX4TSuLtv_12clap_builder6derive4Args12augment_argss0_0B9_
FN:20,_RNCNvXs2_NtCs3v8MvUUnobG_3RUM3cliNtB7_7CliOptsNtNtCs9aXX4TSuLtv_12clap_builder6derive4Args12augment_argss1_0B9_
FN:91,_RNvNtNtCs3v8MvUUnobG_3RUM3cli5testss_14test_find_mode
FN:114,_RNvNtNtCs3v8MvUUnobG_3RUM3cli5testss_25test_is_all_args_archives
FNDA:0,_RNCNvXs1_NtCs3v8MvUUnobG_3RUM3cliNtB7_7CliOptsNtNtCs9aXX4TSuLtv_12clap_builder6derive14FromArgMatches27update_from_arg_matches_mut0B9_
FNDA:0,_RNCNvXs1_NtCs3v8MvUUnobG_3RUM3cliNtB7_7CliOptsNtNtCs9aXX4TSuLtv_12clap_builder6derive14FromArgMatches27update_from_arg_matches_muts_0B9_
FNDA:0,_RNCNvXs1_NtCs3v8MvUUnobG_3RUM3cliNtB7_7CliOptsNtNtCs9aXX4TSuLtv_12clap_builder6derive14FromArgMatches27update_from_arg_matches_muts0_0B9_
FNDA:0,_RNCNvXs1_NtCs3v8MvUUnobG_3RUM3cliNtB7_7CliOptsNtNtCs9aXX4TSuLtv_12clap_builder6derive14FromArgMatches27update_from_arg_matches_muts1_0B9_
FNDA:0,_RNCNvXs1_NtCs3v8MvUUnobG_3RUM3cliNtB7_7CliOptsNtNtCs9aXX4TSuLtv_12clap_builder6derive14FromArgMatches27update_from_arg_matches_muts2_0B9_
FNDA:0,_RNCNvXs1_NtCs3v8MvUUnobG_3RUM3cliNtB7_7CliOptsNtNtCs9aXX4TSuLtv_12clap_builder6derive14FromArgMatches27update_from_arg_matches_muts3_0B9_
FNDA:0,_RNCNvXs2_NtCs3v8MvUUnobG_3RUM3cliNtB7_7CliOptsNtNtCs9aXX4TSuLtv_12clap_builder6derive4Args23augment_args_for_update0B9_
FNDA:0,_RNCNvXs2_NtCs3v8MvUUnobG_3RUM3cliNtB7_7CliOptsNtNtCs9aXX4TSuLtv_12clap_builder6derive4Args23augment_args_for_updates_0B9_
FNDA:0,_RNCNvXs2_NtCs3v8MvUUnobG_3RUM3cliNtB7_7CliOptsNtNtCs9aXX4TSuLtv_12clap_builder6derive4Args23augment_args_for_updates0_0B9_
FNDA:0,_RNCNvXs2_NtCs3v8MvUUnobG_3RUM3cliNtB7_7CliOptsNtNtCs9aXX4TSuLtv_12clap_builder6derive4Args23augment_args_for_updates1_0B9_
FNDA:7,_RNvMNtCs3v8MvUUnobG_3RUM3cliNtB2_7CliOpts8run_mode
FNDA:4,_RNvNtCs3v8MvUUnobG_3RUM3cli20is_all_args_archives
FNDA:13,_RNCNvNtCs3v8MvUUnobG_3RUM3cli20is_all_args_archives0B5_
FNDA:0,_RNCNvXs1_NtCs3v8MvUUnobG_3RUM3cliNtB7_7CliOptsNtNtCs9aXX4TSuLtv_12clap_builder6derive14FromArgMatches20from_arg_matches_mut0B9_
FNDA:0,_RNCNvXs1_NtCs3v8MvUUnobG_3RUM3cliNtB7_7CliOptsNtNtCs9aXX4TSuLtv_12clap_builder6derive14FromArgMatches20from_arg_matches_muts_0B9_
FNDA:0,_RNCNvXs1_NtCs3v8MvUUnobG_3RUM3cliNtB7_7CliOptsNtNtCs9aXX4TSuLtv_12clap_builder6derive14FromArgMatches20from_arg_matches_muts0_0B9_
FNDA:0,_RNCNvXs1_NtCs3v8MvUUnobG_3RUM3cliNtB7_7CliOptsNtNtCs9aXX4TSuLtv_12clap_builder6derive14FromArgMatches20from_arg_matches_muts1_0B9_
FNDA:0,_RNCNvXs1_NtCs3v8MvUUnobG_3RUM3cliNtB7_7CliOptsNtNtCs9aXX4TSuLtv_12clap_builder6derive14FromArgMatches20from_arg_matches_muts2_0B9_
FNDA:5,_RNCNvXs1_NtCs3v8MvUUnobG_3RUM3cliNtB7_7CliOptsNtNtCs9aXX4TSuLtv_12clap_builder6derive14FromArgMatches20from_arg_matches_muts3_0B9_
FNDA:1,_RNCNvXs2_NtCs3v8MvUUnobG_3RUM3cliNtB7_7CliOptsNtNtCs9aXX4TSuLtv_12clap_builder6derive4Args12augment_args0B9_
FNDA:1,_RNCNvXs2_NtCs3v8MvUUnobG_3RUM3cliNtB7_7CliOptsNtNtCs9aXX4TSuLtv_12clap_builder6derive4Args12augment_argss_0B9_
FNDA:1,_RNCNvXs2_NtCs3v8MvUUnobG_3RUM3cliNtB7_7CliOptsNtNtCs9aXX4TSuLtv_12clap_builder6derive4Args12augment_argss0_0B9_
FNDA:1,_RNCNvXs2_NtCs3v8MvUUnobG_3RUM3cliNtB7_7CliOptsNtNtCs9aXX4TSuLtv_12clap_builder6derive4Args12augment_argss1_0B9_
FNDA:1,_RNvNtNtCs3v8MvUUnobG_3RUM3cli5testss_14test_find_mode
FNDA:1,_RNvNtNtCs3v8MvUUnobG_3RUM3cli5testss_25test_is_all_args_archives
FNF:15
FNH:10
DA:12,1
DA:13,0
DA:16,1
DA:17,0
DA:18,1
DA:19,0
DA:20,1
DA:21,0
DA:23,0
DA:25,5
DA:29,7
DA:30,7
DA:31,0
DA:32,7
DA:33,7
DA:34,3
DA:35,1
DA:36,1
DA:38,2
DA:39,2
DA:42,4
DA:44,7
DA:47,4
DA:48,13
DA:49,13
DA:50,13
DA:51,65
DA:52,65
DA:53,11
DA:54,54
DA:56,2
DA:57,13
DA:58,4
DA:91,1
DA:92,1
DA:93,1
DA:94,1
DA:95,1
DA:97,1
DA:98,1
DA:99,1
DA:100,1
DA:102,1
DA:103,1
DA:104,1
DA:105,1
DA:107,1
DA:108,1
DA:109,1
DA:110,1
DA:111,1
DA:114,1
DA:115,1
DA:116,1
BRF:0
BRH:0
LF:56
LH:50
end_of_record
SF:/Users/kuratateharuki/Desktop/RUM/src/extractor.rs
FN:23,_RNvMNtCs3v8MvUUnobG_3RUM9extractorNtB2_13ExtractorOpts3new
FN:26,_RNCNvMNtCs3v8MvUUnobG_3RUM9extractorNtB4_13ExtractorOpts3new0B6_
FN:80,_RNvNtCs3v8MvUUnobG_3RUM9extractor14extractor_info
FN:98,_RNvNtNtCs3v8MvUUnobG_3RUM9extractor5testss_16test_destination
FN:119,_RNvNtNtCs3v8MvUUnobG_3RUM9extractor5testss_21test_create_extractor
FN:35,_RNvMNtCs3v8MvUUnobG_3RUM9extractorNtB2_13ExtractorOpts11destination
FN:56,_RNvNtCs3v8MvUUnobG_3RUM9extractor16create_extractor
FNDA:0,_RNvMNtCs3v8MvUUnobG_3RUM9extractorNtB2_13ExtractorOpts3new
FNDA:0,_RNCNvMNtCs3v8MvUUnobG_3RUM9extractorNtB4_13ExtractorOpts3new0B6_
FNDA:0,_RNvNtCs3v8MvUUnobG_3RUM9extractor14extractor_info
FNDA:1,_RNvNtNtCs3v8MvUUnobG_3RUM9extractor5testss_16test_destination
FNDA:1,_RNvNtNtCs3v8MvUUnobG_3RUM9extractor5testss_21test_create_extractor
FNDA:85,_RNvMNtCs3v8MvUUnobG_3RUM9extractorNtB2_13ExtractorOpts11destination
FNDA:8,_RNvNtCs3v8MvUUnobG_3RUM9extractor16create_extractor
FNF:7
FNH:4
DA:23,0
DA:24,0
DA:25,0
DA:26,0
DA:27,0
DA:28,0
DA:29,0
DA:30,0
DA:31,0
DA:35,85
DA:36,85
DA:37,46
DA:38,46
DA:39,46
DA:40,46
DA:41,46
DA:42,46
DA:43,46
DA:45,39
DA:47,85
DA:56,8
DA:57,8
DA:58,8
DA:59,8
DA:60,8
DA:61,1
DA:62,1
DA:63,1
DA:64,1
DA:65,1
DA:66,1
DA:67,0
DA:68,0
DA:69,1
DA:70,1
DA:71,1
DA:72,1
DA:73,1
DA:76,0
DA:78,8
DA:80,0
DA:81,0
DA:82,0
DA:83,0
DA:84,0
DA:85,0
DA:86,0
DA:87,0
DA:88,0
DA:89,0
DA:90,0
DA:91,0
DA:98,1
DA:99,1
DA:100,1
DA:101,1
DA:102,1
DA:103,1
DA:104,1
DA:105,1
DA:106,1
DA:108,1
DA:109,1
DA:110,1
DA:111,1
DA:112,1
DA:113,1
DA:114,1
DA:115,1
DA:116,1
DA:119,1
DA:120,1
DA:121,1
DA:122,1
DA:124,1
DA:125,1
DA:126,1
DA:128,1
DA:129,1
DA:130,1
DA:132,1
DA:133,1
DA:134,1
DA:136,1
DA:137,1
DA:138,1
DA:140,1
DA:141,1
DA:142,1
DA:144,1
DA:145,1
DA:146,1
DA:148,1
DA:149,1
DA:150,1
DA:151,1
DA:153,0
DA:155,1
BRF:0
BRH:0
LF:99
LH:73
end_of_record
SF:/Users/kuratateharuki/Desktop/RUM/src/extractor/lha.rs
FN:11,_RNvXNtNtCs3v8MvUUnobG_3RUM9extractor3lhaNtB2_12LhaExtractorNtB4_9Extractor13list_archives
FN:35,_RNvXNtNtCs3v8MvUUnobG_3RUM9extractor3lhaNtB2_12LhaExtractorNtB4_9Extractor7perform
FN:80,_RNvXNtNtCs3v8MvUUnobG_3RUM9extractor3lhaNtB2_12LhaExtractorNtB4_9Extractor6format
FN:92,_RNvNtNtNtCs3v8MvUUnobG_3RUM9extractor3lha5testss_18test_list_archives
FN:108,_RNvNtNtNtCs3v8MvUUnobG_3RUM9extractor3lha5testss_20test_extract_archive
FN:131,_RNvNtNtNtCs3v8MvUUnobG_3RUM9extractor3lha5testss_11test_format
FNDA:1,_RNvXNtNtCs3v8MvUUnobG_3RUM9extractor3lhaNtB2_12LhaExtractorNtB4_9Extractor13list_archives
FNDA:1,_RNvXNtNtCs3v8MvUUnobG_3RUM9extractor3lhaNtB2_12LhaExtractorNtB4_9Extractor7perform
FNDA:1,_RNvXNtNtCs3v8MvUUnobG_3RUM9extractor3lhaNtB2_12LhaExtractorNtB4_9Extractor6format
FNDA:1,_RNvNtNtNtCs3v8MvUUnobG_3RUM9extractor3lha5testss_18test_list_archives
FNDA:1,_RNvNtNtNtCs3v8MvUUnobG_3RUM9extractor3lha5testss_20test_extract_archive
FNDA:1,_RNvNtNtNtCs3v8MvUUnobG_3RUM9extractor3lha5testss_11test_format
FNF:6
FNH:6
DA:11,1
DA:12,1
DA:13,1
DA:14,0
DA:15,1
DA:17,27
DA:18,27
DA:19,27
DA:20,27
DA:21,23
DA:22,23
DA:23,27
DA:24,27
DA:25,27
DA:26,1
DA:27,26
DA:29,0
DA:32,1
DA:33,1
DA:35,1
DA:36,1
DA:37,0
DA:38,1
DA:40,27
DA:41,27
DA:42,27
DA:43,27
DA:44,27
DA:45,23
DA:46,23
DA:47,23
DA:48,23
DA:49,23
DA:50,23
DA:51,23
DA:52,23
DA:53,0
DA:55,23
DA:56,23
DA:57,0
DA:59,23
DA:60,0
DA:61,23
DA:62,4
DA:63,0
DA:64,0
DA:65,0
DA:66,0
DA:67,4
DA:68,27
DA:69,27
DA:70,27
DA:71,1
DA:72,26
DA:74,0
DA:77,1
DA:78,1
DA:80,1
DA:81,1
DA:82,1
DA:92,1
DA:93,1
DA:94,1
DA:95,1
DA:96,1
DA:97,1
DA:98,1
DA:99,1
DA:100,1
DA:101,1
DA:103,0
DA:105,1
DA:108,1
DA:109,1
DA:110,1
DA:111,1
DA:112,1
DA:113,1
DA:114,1
DA:115,1
DA:116,1
DA:117,1
DA:119,1
DA:120,1
DA:121,1
DA:123,0
DA:124,0
DA:125,0
DA:128,1
DA:131,1
DA:132,1
DA:133,1
DA:134,1
BRF:0
BRH:0
LF:93
LH:78
end_of_record
SF:/Users/kuratateharuki/Desktop/RUM/src/extractor/rar.rs
FN:50,_RNvNtNtNtCs3v8MvUUnobG_3RUM9extractor3rar5testss_18test_list_archives
FN:66,_RNvNtNtNtCs3v8MvUUnobG_3RUM9extractor3rar5testss_20test_extract_archive
FN:86,_RNvNtNtNtCs3v8MvUUnobG_3RUM9extractor3rar5testss_11test_format
FN:12,_RNvXNtNtCs3v8MvUUnobG_3RUM9extractor3rarNtB2_12RarExtractorNtB4_9Extractor13list_archives
FN:22,_RNvXNtNtCs3v8MvUUnobG_3RUM9extractor3rarNtB2_12RarExtractorNtB4_9Extractor7perform
FN:39,_RNvXNtNtCs3v8MvUUnobG_3RUM9extractor3rarNtB2_12RarExtractorNtB4_9Extractor6format
FNDA:1,_RNvNtNtNtCs3v8MvUUnobG_3RUM9extractor3rar5testss_18test_list_archives
FNDA:1,_RNvNtNtNtCs3v8MvUUnobG_3RUM9extractor3rar5testss_20test_extract_archive
FNDA:1,_RNvNtNtNtCs3v8MvUUnobG_3RUM9extractor3rar5testss_11test_format
FNDA:1,_RNvXNtNtCs3v8MvUUnobG_3RUM9extractor3rarNtB2_12RarExtractorNtB4_9Extractor13list_archives
FNDA:1,_RNvXNtNtCs3v8MvUUnobG_3RUM9extractor3rarNtB2_12RarExtractorNtB4_9Extractor7perform
FNDA:2,_RNvXNtNtCs3v8MvUUnobG_3RUM9extractor3rarNtB2_12RarExtractorNtB4_9Extractor6format
FNF:6
FNH:6
DA:12,1
DA:13,1
DA:14,18
DA:15,18
DA:16,18
DA:17,18
DA:19,1
DA:20,1
DA:22,1
DA:23,1
DA:24,1
DA:25,19
DA:26,18
DA:27,18
DA:28,18
DA:29,15
DA:30,15
DA:31,15
DA:33,3
DA:36,1
DA:37,1
DA:39,2
DA:40,2
DA:41,2
DA:50,1
DA:51,1
DA:52,1
DA:53,1
DA:54,1
DA:55,1
DA:56,1
DA:57,1
DA:58,1
DA:59,1
DA:61,0
DA:63,1
DA:66,1
DA:67,1
DA:68,1
DA:69,1
DA:70,1
DA:71,1
DA:72,1
DA:73,1
DA:74,1
DA:75,1
DA:77,1
DA:78,1
DA:79,1
DA:81,0
DA:83,1
DA:86,1
DA:87,1
DA:88,1
DA:89,1
BRF:0
BRH:0
LF:55
LH:53
end_of_record
SF:/Users/kuratateharuki/Desktop/RUM/src/extractor/sevenz.rs
FN:72,_RNvNtNtNtCs3v8MvUUnobG_3RUM9extractor6sevenz5testss_9test_list
FN:88,_RNvNtNtNtCs3v8MvUUnobG_3RUM9extractor6sevenz5testss_20test_extract_archive
FN:108,_RNvNtNtNtCs3v8MvUUnobG_3RUM9extractor6sevenz5testss_11test_format
FN:16,_RNvXNtNtCs3v8MvUUnobG_3RUM9extractor6sevenzNtB2_15SevenZExtractorNtB4_9Extractor13list_archives
FN:30,_RNvXNtNtCs3v8MvUUnobG_3RUM9extractor6sevenzNtB2_15SevenZExtractorNtB4_9Extractor7perform
FN:39,_RNvXNtNtCs3v8MvUUnobG_3RUM9extractor6sevenzNtB2_15SevenZExtractorNtB4_9Extractor6format
FN:44,_RNvNtNtCs3v8MvUUnobG_3RUM9extractor6sevenz7extract
FN:56,_RNCNvNtNtCs3v8MvUUnobG_3RUM9extractor6sevenz7extract0B7_
FNDA:1,_RNvNtNtNtCs3v8MvUUnobG_3RUM9extractor6sevenz5testss_9test_list
FNDA:1,_RNvNtNtNtCs3v8MvUUnobG_3RUM9extractor6sevenz5testss_20test_extract_archive
FNDA:1,_RNvNtNtNtCs3v8MvUUnobG_3RUM9extractor6sevenz5testss_11test_format
FNDA:1,_RNvXNtNtCs3v8MvUUnobG_3RUM9extractor6sevenzNtB2_15SevenZExtractorNtB4_9Extractor13list_archives
FNDA:1,_RNvXNtNtCs3v8MvUUnobG_3RUM9extractor6sevenzNtB2_15SevenZExtractorNtB4_9Extractor7perform
FNDA:2,_RNvXNtNtCs3v8MvUUnobG_3RUM9extractor6sevenzNtB2_15SevenZExtractorNtB4_9Extractor6format
FNDA:1,_RNvNtNtCs3v8MvUUnobG_3RUM9extractor6sevenz7extract
FNDA:21,_RNCNvNtNtCs3v8MvUUnobG_3RUM9extractor6sevenz7extract0B7_
FNF:8
FNH:8
DA:16,1
DA:17,1
DA:18,1
DA:19,1
DA:20,1
DA:21,1
DA:22,22
DA:23,21
DA:25,1
DA:27,0
DA:29,1
DA:30,1
DA:31,1
DA:32,1
DA:33,1
DA:35,0
DA:37,1
DA:38,1
DA:39,2
DA:40,2
DA:41,2
DA:44,1
DA:45,1
DA:46,1
DA:47,1
DA:48,1
DA:49,1
DA:51,0
DA:53,1
DA:54,21
DA:55,21
DA:56,21
DA:57,21
DA:58,21
DA:59,21
DA:60,0
DA:61,21
DA:63,1
DA:64,1
DA:72,1
DA:73,1
DA:74,1
DA:75,1
DA:76,1
DA:77,1
DA:78,1
DA:79,1
DA:80,1
DA:81,1
DA:83,0
DA:85,1
DA:88,1
DA:89,1
DA:90,1
DA:91,1
DA:92,1
DA:93,1
DA:94,1
DA:95,1
DA:96,1
DA:97,1
DA:99,1
DA:100,1
DA:101,1
DA:103,0
DA:105,1
DA:108,1
DA:109,1
DA:110,1
DA:111,1
BRF:0
BRH:0
LF:72
LH:66
end_of_record
SF:/Users/kuratateharuki/Desktop/RUM/src/extractor/tar.rs
FN:167,_RNvNtNtNtCs3v8MvUUnobG_3RUM9extractor3tar5testss_18test_list_tar_file
FN:183,_RNvNtNtNtCs3v8MvUUnobG_3RUM9extractor3tar5testss_20test_extract_archive
FN:203,_RNvNtNtNtCs3v8MvUUnobG_3RUM9extractor3tar5testss_21test_list_tarbz2_file
FN:219,_RNvNtNtNtCs3v8MvUUnobG_3RUM9extractor3tar5testss_20test_list_targz_file
FN:235,_RNvNtNtNtCs3v8MvUUnobG_3RUM9extractor3tar5testss_22test_list_tarzstd_file
FN:252,_RNvNtNtNtCs3v8MvUUnobG_3RUM9extractor3tar5testss_11test_format
FN:20,_RNCNvXNtNtCs3v8MvUUnobG_3RUM9extractor3tarNtB4_12TarExtractorNtB6_9Extractor13list_archives0B8_
FN:26,_RNCNvXNtNtCs3v8MvUUnobG_3RUM9extractor3tarNtB4_12TarExtractorNtB6_9Extractor7perform0B8_
FN:38,_RNCNvXs_NtNtCs3v8MvUUnobG_3RUM9extractor3tarNtB6_14TarGzExtractorNtB8_9Extractor13list_archives0Ba_
FN:44,_RNCNvXs_NtNtCs3v8MvUUnobG_3RUM9extractor3tarNtB6_14TarGzExtractorNtB8_9Extractor7perform0Ba_
FN:56,_RNCNvXs0_NtNtCs3v8MvUUnobG_3RUM9extractor3tarNtB7_15TarBz2ExtractorNtB9_9Extractor13list_archives0Bb_
FN:62,_RNCNvXs0_NtNtCs3v8MvUUnobG_3RUM9extractor3tarNtB7_15TarBz2ExtractorNtB9_9Extractor7perform0Bb_
FN:74,_RNCNvXs1_NtNtCs3v8MvUUnobG_3RUM9extractor3tarNtB7_14TarXzExtractorNtB9_9Extractor13list_archives0Bb_
FN:80,_RNCNvXs1_NtNtCs3v8MvUUnobG_3RUM9extractor3tarNtB7_14TarXzExtractorNtB9_9Extractor7perform0Bb_
FN:92,_RNCNvXs2_NtNtCs3v8MvUUnobG_3RUM9extractor3tarNtB7_16TarZstdExtractorNtB9_9Extractor13list_archives0Bb_
FN:99,_RNCNvXs2_NtNtCs3v8MvUUnobG_3RUM9extractor3tarNtB7_16TarZstdExtractorNtB9_9Extractor7perform0Bb_
FN:109,_RINvNtNtCs3v8MvUUnobG_3RUM9extractor3tar13open_tar_fileNCNvXB2_NtB2_12TarExtractorNtB4_9Extractor13list_archives0NtNtCs9SwuKXpjJu9_3std2fs4FileEB6_
FN:109,_RINvNtNtCs3v8MvUUnobG_3RUM9extractor3tar13open_tar_fileNCNvXB2_NtB2_12TarExtractorNtB4_9Extractor7perform0NtNtCs9SwuKXpjJu9_3std2fs4FileEB6_
FN:109,_RINvNtNtCs3v8MvUUnobG_3RUM9extractor3tar13open_tar_fileNCNvXs0_B2_NtB2_15TarBz2ExtractorNtB4_9Extractor13list_archives0INtNtCs47WbULU4UtQ_5bzip24read9BzDecoderNtNtCs9SwuKXpjJu9_3std2fs4FileEEB6_
FN:109,_RINvNtNtCs3v8MvUUnobG_3RUM9extractor3tar13open_tar_fileNCNvXs0_B2_NtB2_15TarBz2ExtractorNtB4_9Extractor7perform0INtNtCs47WbULU4UtQ_5bzip24read9BzDecoderNtNtCs9SwuKXpjJu9_3std2fs4FileEEB6_
FN:109,_RINvNtNtCs3v8MvUUnobG_3RUM9extractor3tar13open_tar_fileNCNvXs1_B2_NtB2_14TarXzExtractorNtB4_9Extractor13list_archives0INtNtCs61y0Vbfv9G3_3xz24read9XzDecoderNtNtCs9SwuKXpjJu9_3std2fs4FileEEB6_
FN:109,_RINvNtNtCs3v8MvUUnobG_3RUM9extractor3tar13open_tar_fileNCNvXs1_B2_NtB2_14TarXzExtractorNtB4_9Extractor7perform0INtNtCs61y0Vbfv9G3_3xz24read9XzDecoderNtNtCs9SwuKXpjJu9_3std2fs4FileEEB6_
FN:109,_RINvNtNtCs3v8MvUUnobG_3RUM9extractor3tar13open_tar_fileNCNvXs2_B2_NtB2_16TarZstdExtractorNtB4_9Extractor13list_archives0INtNtNtCs1DS9XJ93lyw_4zstd6stream4read7DecoderINtNtNtNtCs9SwuKXpjJu9_3std2io8buffered9bufreader9BufReaderNtNtB2N_2fs4FileEEEB6_
FN:109,_RINvNtNtCs3v8MvUUnobG_3RUM9extractor3tar13open_tar_fileNCNvXs2_B2_NtB2_16TarZstdExtractorNtB4_9Extractor7perform0INtNtNtCs1DS9XJ93lyw_4zstd6stream4read7DecoderINtNtNtNtCs9SwuKXpjJu9_3std2io8buffered9bufreader9BufReaderNtNtB2G_2fs4FileEEEB6_
FN:109,_RINvNtNtCs3v8MvUUnobG_3RUM9extractor3tar13open_tar_fileNCNvXs_B2_NtB2_14TarGzExtractorNtB4_9Extractor13list_archives0INtNtNtCsf3gZZvQVQ9n_6flate22gz4read9GzDecoderNtNtCs9SwuKXpjJu9_3std2fs4FileEEB6_
FN:109,_RINvNtNtCs3v8MvUUnobG_3RUM9extractor3tar13open_tar_fileNCNvXs_B2_NtB2_14TarGzExtractorNtB4_9Extractor7perform0INtNtNtCsf3gZZvQVQ9n_6flate22gz4read9GzDecoderNtNtCs9SwuKXpjJu9_3std2fs4FileEEB6_
FN:121,_RINvNtNtCs3v8MvUUnobG_3RUM9extractor3tar11extract_tarINtNtCs47WbULU4UtQ_5bzip24read9BzDecoderNtNtCs9SwuKXpjJu9_3std2fs4FileEEB6_
FN:121,_RINvNtNtCs3v8MvUUnobG_3RUM9extractor3tar11extract_tarINtNtCs61y0Vbfv9G3_3xz24read9XzDecoderNtNtCs9SwuKXpjJu9_3std2fs4FileEEB6_
FN:121,_RINvNtNtCs3v8MvUUnobG_3RUM9extractor3tar11extract_tarINtNtNtCs1DS9XJ93lyw_4zstd6stream4read7DecoderINtNtNtNtCs9SwuKXpjJu9_3std2io8buffered9bufreader9BufReaderNtNtB1I_2fs4FileEEEB6_
FN:121,_RINvNtNtCs3v8MvUUnobG_3RUM9extractor3tar11extract_tarINtNtNtCsf3gZZvQVQ9n_6flate22gz4read9GzDecoderNtNtCs9SwuKXpjJu9_3std2fs4FileEEB6_
FN:121,_RINvNtNtCs3v8MvUUnobG_3RUM9extractor3tar11extract_tarNtNtCs9SwuKXpjJu9_3std2fs4FileEB6_
FN:151,_RINvNtNtCs3v8MvUUnobG_3RUM9extractor3tar8list_tarINtNtCs47WbULU4UtQ_5bzip24read9BzDecoderNtNtCs9SwuKXpjJu9_3std2fs4FileEEB6_
FN:151,_RINvNtNtCs3v8MvUUnobG_3RUM9extractor3tar8list_tarINtNtCs61y0Vbfv9G3_3xz24read9XzDecoderNtNtCs9SwuKXpjJu9_3std2fs4FileEEB6_
FN:151,_RINvNtNtCs3v8MvUUnobG_3RUM9extractor3tar8list_tarINtNtNtCs1DS9XJ93lyw_4zstd6stream4read7DecoderINtNtNtNtCs9SwuKXpjJu9_3std2io8buffered9bufreader9BufReaderNtNtB1E_2fs4FileEEEB6_
FN:151,_RINvNtNtCs3v8MvUUnobG_3RUM9extractor3tar8list_tarINtNtNtCsf3gZZvQVQ9n_6flate22gz4read9GzDecoderNtNtCs9SwuKXpjJu9_3std2fs4FileEEB6_
FN:151,_RINvNtNtCs3v8MvUUnobG_3RUM9extractor3tar8list_tarNtNtCs9SwuKXpjJu9_3std2fs4FileEB6_
FN:19,_RNvXNtNtCs3v8MvUUnobG_3RUM9extractor3tarNtB2_12TarExtractorNtB4_9Extractor13list_archives
FN:25,_RNvXNtNtCs3v8MvUUnobG_3RUM9extractor3tarNtB2_12TarExtractorNtB4_9Extractor7perform
FN:31,_RNvXNtNtCs3v8MvUUnobG_3RUM9extractor3tarNtB2_12TarExtractorNtB4_9Extractor6format
FN:37,_RNvXs_NtNtCs3v8MvUUnobG_3RUM9extractor3tarNtB4_14TarGzExtractorNtB6_9Extractor13list_archives
FN:43,_RNvXs_NtNtCs3v8MvUUnobG_3RUM9extractor3tarNtB4_14TarGzExtractorNtB6_9Extractor7perform
FN:49,_RNvXs_NtNtCs3v8MvUUnobG_3RUM9extractor3tarNtB4_14TarGzExtractorNtB6_9Extractor6format
FN:55,_RNvXs0_NtNtCs3v8MvUUnobG_3RUM9extractor3tarNtB5_15TarBz2ExtractorNtB7_9Extractor13list_archives
FN:61,_RNvXs0_NtNtCs3v8MvUUnobG_3RUM9extractor3tarNtB5_15TarBz2ExtractorNtB7_9Extractor7perform
FN:67,_RNvXs0_NtNtCs3v8MvUUnobG_3RUM9extractor3tarNtB5_15TarBz2ExtractorNtB7_9Extractor6format
FN:73,_RNvXs1_NtNtCs3v8MvUUnobG_3RUM9extractor3tarNtB5_14TarXzExtractorNtB7_9Extractor13list_archives
FN:79,_RNvXs1_NtNtCs3v8MvUUnobG_3RUM9extractor3tarNtB5_14TarXzExtractorNtB7_9Extractor7perform
FN:85,_RNvXs1_NtNtCs3v8MvUUnobG_3RUM9extractor3tarNtB5_14TarXzExtractorNtB7_9Extractor6format
FN:91,_RNvXs2_NtNtCs3v8MvUUnobG_3RUM9extractor3tarNtB5_16TarZstdExtractorNtB7_9Extractor13list_archives
FN:98,_RNvXs2_NtNtCs3v8MvUUnobG_3RUM9extractor3tarNtB5_16TarZstdExtractorNtB7_9Extractor7perform
FN:104,_RNvXs2_NtNtCs3v8MvUUnobG_3RUM9extractor3tarNtB5_16TarZstdExtractorNtB7_9Extractor6format
FN:146,_RNvNtNtCs3v8MvUUnobG_3RUM9extractor3tar27is_filename_mac_finder_file
FNDA:1,_RNvNtNtNtCs3v8MvUUnobG_3RUM9extractor3tar5testss_18test_list_tar_file
FNDA:1,_RNvNtNtNtCs3v8MvUUnobG_3RUM9extractor3tar5testss_20test_extract_archive
FNDA:1,_RNvNtNtNtCs3v8MvUUnobG_3RUM9extractor3tar5testss_21test_list_tarbz2_file
FNDA:1,_RNvNtNtNtCs3v8MvUUnobG_3RUM9extractor3tar5testss_20test_list_targz_file
FNDA:1,_RNvNtNtNtCs3v8MvUUnobG_3RUM9extractor3tar5testss_22test_list_tarzstd_file
FNDA:1,_RNvNtNtNtCs3v8MvUUnobG_3RUM9extractor3tar5testss_11test_format
FNDA:1,_RNCNvXNtNtCs3v8MvUUnobG_3RUM9extractor3tarNtB4_12TarExtractorNtB6_9Extractor13list_archives0B8_
FNDA:1,_RNCNvXNtNtCs3v8MvUUnobG_3RUM9extractor3tarNtB4_12TarExtractorNtB6_9Extractor7perform0B8_
FNDA:1,_RNCNvXs_NtNtCs3v8MvUUnobG_3RUM9extractor3tarNtB6_14TarGzExtractorNtB8_9Extractor13list_archives0Ba_
FNDA:0,_RNCNvXs_NtNtCs3v8MvUUnobG_3RUM9extractor3tarNtB6_14TarGzExtractorNtB8_9Extractor7perform0Ba_
FNDA:1,_RNCNvXs0_NtNtCs3v8MvUUnobG_3RUM9extractor3tarNtB7_15TarBz2ExtractorNtB9_9Extractor13list_archives0Bb_
FNDA:0,_RNCNvXs0_NtNtCs3v8MvUUnobG_3RUM9extractor3tarNtB7_15TarBz2ExtractorNtB9_9Extractor7perform0Bb_
FNDA:0,_RNCNvXs1_NtNtCs3v8MvUUnobG_3RUM9extractor3tarNtB7_14TarXzExtractorNtB9_9Extractor13list_archives0Bb_
FNDA:0,_RNCNvXs1_NtNtCs3v8MvUUnobG_3RUM9extractor3tarNtB7_14TarXzExtractorNtB9_9Extractor7perform0Bb_
FNDA:1,_RNCNvXs2_NtNtCs3v8MvUUnobG_3RUM9extractor3tarNtB7_16TarZstdExtractorNtB9_9Extractor13list_archives0Bb_
FNDA:0,_RNCNvXs2_NtNtCs3v8MvUUnobG_3RUM9extractor3tarNtB7_16TarZstdExtractorNtB9_9Extractor7perform0Bb_
FNDA:1,_RINvNtNtCs3v8MvUUnobG_3RUM9extractor3tar13open_tar_fileNCNvXB2_NtB2_12TarExtractorNtB4_9Extractor13list_archives0NtNtCs9SwuKXpjJu9_3std2fs4FileEB6_
FNDA:1,_RINvNtNtCs3v8MvUUnobG_3RUM9extractor3tar13open_tar_fileNCNvXB2_NtB2_12TarExtractorNtB4_9Extractor7perform0NtNtCs9SwuKXpjJu9_3std2fs4FileEB6_
FNDA:1,_RINvNtNtCs3v8MvUUnobG_3RUM9extractor3tar13open_tar_fileNCNvXs0_B2_NtB2_15TarBz2ExtractorNtB4_9Extractor13list_archives0INtNtCs47WbULU4UtQ_5bzip24read9BzDecoderNtNtCs9SwuKXpjJu9_3std2fs4FileEEB6_
FNDA:0,_RINvNtNtCs3v8MvUUnobG_3RUM9extractor3tar13open_tar_fileNCNvXs0_B2_NtB2_15TarBz2ExtractorNtB4_9Extractor7perform0INtNtCs47WbULU4UtQ_5bzip24read9BzDecoderNtNtCs9SwuKXpjJu9_3std2fs4FileEEB6_
FNDA:0,_RINvNtNtCs3v8MvUUnobG_3RUM9extractor3tar13open_tar_fileNCNvXs1_B2_NtB2_14TarXzExtractorNtB4_9Extractor13list_archives0INtNtCs61y0Vbfv9G3_3xz24read9XzDecoderNtNtCs9SwuKXpjJu9_3std2fs4FileEEB6_
FNDA:0,_RINvNtNtCs3v8MvUUnobG_3RUM9extractor3tar13open_tar_fileNCNvXs1_B2_NtB2_14TarXzExtractorNtB4_9Extractor7perform0INtNtCs61y0Vbfv9G3_3xz24read9XzDecoderNtNtCs9SwuKXpjJu9_3std2fs4FileEEB6_
FNDA:1,_RINvNtNtCs3v8MvUUnobG_3RUM9extractor3tar13open_tar_fileNCNvXs2_B2_NtB2_16TarZstdExtractorNtB4_9Extractor13list_archives0INtNtNtCs1DS9XJ93lyw_4zstd6stream4read7DecoderINtNtNtNtCs9SwuKXpjJu9_3std2io8buffered9bufreader9BufReaderNtNtB2N_2fs4FileEEEB6_
FNDA:0,_RINvNtNtCs3v8MvUUnobG_3RUM9extractor3tar13open_tar_fileNCNvXs2_B2_NtB2_16TarZstdExtractorNtB4_9Extractor7perform0INtNtNtCs1DS9XJ93lyw_4zstd6stream4read7DecoderINtNtNtNtCs9SwuKXpjJu9_3std2io8buffered9bufreader9BufReaderNtNtB2G_2fs4FileEEEB6_
FNDA:1,_RINvNtNtCs3v8MvUUnobG_3RUM9extractor3tar13open_tar_fileNCNvXs_B2_NtB2_14TarGzExtractorNtB4_9Extractor13list_archives0INtNtNtCsf3gZZvQVQ9n_6flate22gz4read9GzDecoderNtNtCs9SwuKXpjJu9_3std2fs4FileEEB6_
FNDA:0,_RINvNtNtCs3v8MvUUnobG_3RUM9extractor3tar13open_tar_fileNCNvXs_B2_NtB2_14TarGzExtractorNtB4_9Extractor7perform0INtNtNtCsf3gZZvQVQ9n_6flate22gz4read9GzDecoderNtNtCs9SwuKXpjJu9_3std2fs4FileEEB6_
FNDA:0,_RINvNtNtCs3v8MvUUnobG_3RUM9extractor3tar11extract_tarINtNtCs47WbULU4UtQ_5bzip24read9BzDecoderNtNtCs9SwuKXpjJu9_3std2fs4FileEEB6_
FNDA:0,_RINvNtNtCs3v8MvUUnobG_3RUM9extractor3tar11extract_tarINtNtCs61y0Vbfv9G3_3xz24read9XzDecoderNtNtCs9SwuKXpjJu9_3std2fs4FileEEB6_
FNDA:0,_RINvNtNtCs3v8MvUUnobG_3RUM9extractor3tar11extract_tarINtNtNtCs1DS9XJ93lyw_4zstd6stream4read7DecoderINtNtNtNtCs9SwuKXpjJu9_3std2io8buffered9bufreader9BufReaderNtNtB1I_2fs4FileEEEB6_
FNDA:0,_RINvNtNtCs3v8MvUUnobG_3RUM9extractor3tar11extract_tarINtNtNtCsf3gZZvQVQ9n_6flate22gz4read9GzDecoderNtNtCs9SwuKXpjJu9_3std2fs4FileEEB6_
FNDA:1,_RINvNtNtCs3v8MvUUnobG_3RUM9extractor3tar11extract_tarNtNtCs9SwuKXpjJu9_3std2fs4FileEB6_
FNDA:1,_RINvNtNtCs3v8MvUUnobG_3RUM9extractor3tar8list_tarINtNtCs47WbULU4UtQ_5bzip24read9BzDecoderNtNtCs9SwuKXpjJu9_3std2fs4FileEEB6_
FNDA:0,_RINvNtNtCs3v8MvUUnobG_3RUM9extractor3tar8list_tarINtNtCs61y0Vbfv9G3_3xz24read9XzDecoderNtNtCs9SwuKXpjJu9_3std2fs4FileEEB6_
FNDA:1,_RINvNtNtCs3v8MvUUnobG_3RUM9extractor3tar8list_tarINtNtNtCs1DS9XJ93lyw_4zstd6stream4read7DecoderINtNtNtNtCs9SwuKXpjJu9_3std2io8buffered9bufreader9BufReaderNtNtB1E_2fs4FileEEEB6_
FNDA:1,_RINvNtNtCs3v8MvUUnobG_3RUM9extractor3tar8list_tarINtNtNtCsf3gZZvQVQ9n_6flate22gz4read9GzDecoderNtNtCs9SwuKXpjJu9_3std2fs4FileEEB6_
FNDA:1,_RINvNtNtCs3v8MvUUnobG_3RUM9extractor3tar8list_tarNtNtCs9SwuKXpjJu9_3std2fs4FileEB6_
FNDA:1,_RNvXNtNtCs3v8MvUUnobG_3RUM9extractor3tarNtB2_12TarExtractorNtB4_9Extractor13list_archives
FNDA:1,_RNvXNtNtCs3v8MvUUnobG_3RUM9extractor3tarNtB2_12TarExtractorNtB4_9Extractor7perform
FNDA:2,_RNvXNtNtCs3v8MvUUnobG_3RUM9extractor3tarNtB2_12TarExtractorNtB4_9Extractor6format
FNDA:1,_RNvXs_NtNtCs3v8MvUUnobG_3RUM9extractor3tarNtB4_14TarGzExtractorNtB6_9Extractor13list_archives
FNDA:0,_RNvXs_NtNtCs3v8MvUUnobG_3RUM9extractor3tarNtB4_14TarGzExtractorNtB6_9Extractor7perform
FNDA:2,_RNvXs_NtNtCs3v8MvUUnobG_3RUM9extractor3tarNtB4_14TarGzExtractorNtB6_9Extractor6format
FNDA:1,_RNvXs0_NtNtCs3v8MvUUnobG_3RUM9extractor3tarNtB5_15TarBz2ExtractorNtB7_9Extractor13list_archives
FNDA:0,_RNvXs0_NtNtCs3v8MvUUnobG_3RUM9extractor3tarNtB5_15TarBz2ExtractorNtB7_9Extractor7perform
FNDA:2,_RNvXs0_NtNtCs3v8MvUUnobG_3RUM9extractor3tarNtB5_15TarBz2ExtractorNtB7_9Extractor6format
FNDA:0,_RNvXs1_NtNtCs3v8MvUUnobG_3RUM9extractor3tarNtB5_14TarXzExtractorNtB7_9Extractor13list_archives
FNDA:0,_RNvXs1_NtNtCs3v8MvUUnobG_3RUM9extractor3tarNtB5_14TarXzExtractorNtB7_9Extractor7perform
FNDA:1,_RNvXs1_NtNtCs3v8MvUUnobG_3RUM9extractor3tarNtB5_14TarXzExtractorNtB7_9Extractor6format
FNDA:1,_RNvXs2_NtNtCs3v8MvUUnobG_3RUM9extractor3tarNtB5_16TarZstdExtractorNtB7_9Extractor13list_archives
FNDA:0,_RNvXs2_NtNtCs3v8MvUUnobG_3RUM9extractor3tarNtB5_16TarZstdExtractorNtB7_9Extractor7perform
FNDA:0,_RNvXs2_NtNtCs3v8MvUUnobG_3RUM9extractor3tarNtB5_16TarZstdExtractorNtB7_9Extractor6format
FNDA:16,_RNvNtNtCs3v8MvUUnobG_3RUM9extractor3tar27is_filename_mac_finder_file
FNF:35
FNH:24
DA:19,1
DA:20,1
DA:21,1
DA:22,0
DA:24,1
DA:25,1
DA:26,1
DA:27,0
DA:28,1
DA:30,1
DA:31,2
DA:32,2
DA:33,2
DA:37,1
DA:38,1
DA:39,1
DA:40,0
DA:42,1
DA:43,0
DA:44,0
DA:45,0
DA:46,0
DA:48,0
DA:49,2
DA:50,2
DA:51,2
DA:55,1
DA:56,1
DA:57,1
DA:58,0
DA:60,1
DA:61,0
DA:62,0
DA:63,0
DA:64,0
DA:66,0
DA:67,2
DA:68,2
DA:69,2
DA:73,0
DA:74,0
DA:75,0
DA:76,0
DA:78,0
DA:79,0
DA:80,0
DA:81,0
DA:82,0
DA:84,0
DA:85,1
DA:86,1
DA:87,1
DA:91,1
DA:92,1
DA:93,0
DA:94,1
DA:96,1
DA:98,0
DA:99,0
DA:100,0
DA:101,0
DA:103,0
DA:104,0
DA:105,0
DA:106,0
DA:109,5
DA:110,5
DA:111,5
DA:112,5
DA:113,5
DA:114,5
DA:115,0
DA:117,5
DA:118,5
DA:119,5
DA:121,1
DA:122,1
DA:123,1
DA:124,1
DA:125,1
DA:126,16
DA:127,16
DA:128,16
DA:129,16
DA:130,16
DA:131,0
DA:132,16
DA:133,16
DA:134,16
DA:135,16
DA:136,16
DA:137,16
DA:138,16
DA:139,16
DA:140,16
DA:141,16
DA:143,1
DA:144,1
DA:146,16
DA:147,16
DA:148,16
DA:149,16
DA:151,4
DA:152,4
DA:153,64
DA:154,64
DA:155,64
DA:156,64
DA:157,64
DA:158,4
DA:159,4
DA:167,1
DA:168,1
DA:169,1
DA:170,1
DA:171,1
DA:172,1
DA:173,1
DA:174,1
DA:175,1
DA:176,1
DA:178,0
DA:180,1
DA:183,1
DA:184,1
DA:185,1
DA:186,1
DA:187,1
DA:188,1
DA:189,1
DA:190,1
DA:191,1
DA:192,1
DA:194,1
DA:195,1
DA:196,1
DA:198,0
DA:200,1
DA:203,1
DA:204,1
DA:205,1
DA:206,1
DA:207,1
DA:208,1
DA:209,1
DA:210,1
DA:211,1
DA:212,1
DA:214,0
DA:216,1
DA:219,1
DA:220,1
DA:221,1
DA:222,1
DA:223,1
DA:224,1
DA:225,1
DA:226,1
DA:227,1
DA:228,1
DA:230,0
DA:232,1
DA:235,1
DA:236,1
DA:237,1
DA:238,1
DA:239,1
DA:240,1
DA:241,1
DA:242,1
DA:243,1
DA:244,1
DA:246,0
DA:248,1
DA:252,1
DA:253,1
DA:254,1
DA:256,1
DA:257,1
DA:259,1
DA:260,1
DA:261,1
BRF:0
BRH:0
LF:192
LH:147
end_of_record
SF:/Users/kuratateharuki/Desktop/RUM/src/extractor/zip.rs
FN:55,_RNvNtNtNtCs3v8MvUUnobG_3RUM9extractor3zip5testss_18test_list_archives
FN:71,_RNvNtNtNtCs3v8MvUUnobG_3RUM9extractor3zip5testss_20test_extract_archive
FN:91,_RNvNtNtNtCs3v8MvUUnobG_3RUM9extractor3zip5testss_11test_format
FN:13,_RNvXNtNtCs3v8MvUUnobG_3RUM9extractor3zipNtB2_12ZipExtractorNtB4_9Extractor13list_archives
FN:26,_RNvXNtNtCs3v8MvUUnobG_3RUM9extractor3zipNtB2_12ZipExtractorNtB4_9Extractor7perform
FN:43,_RNvXNtNtCs3v8MvUUnobG_3RUM9extractor3zipNtB2_12ZipExtractorNtB4_9Extractor6format
FNDA:1,_RNvNtNtNtCs3v8MvUUnobG_3RUM9extractor3zip5testss_18test_list_archives
FNDA:1,_RNvNtNtNtCs3v8MvUUnobG_3RUM9extractor3zip5testss_20test_extract_archive
FNDA:1,_RNvNtNtNtCs3v8MvUUnobG_3RUM9extractor3zip5testss_11test_format
FNDA:1,_RNvXNtNtCs3v8MvUUnobG_3RUM9extractor3zipNtB2_12ZipExtractorNtB4_9Extractor13list_archives
FNDA:1,_RNvXNtNtCs3v8MvUUnobG_3RUM9extractor3zipNtB2_12ZipExtractorNtB4_9Extractor7perform
FNDA:2,_RNvXNtNtCs3v8MvUUnobG_3RUM9extractor3zipNtB2_12ZipExtractorNtB4_9Extractor6format
FNF:6
FNH:6
DA:13,1
DA:14,1
DA:15,1
DA:16,1
DA:17,1
DA:18,19
DA:19,19
DA:20,19
DA:21,19
DA:22,19
DA:23,1
DA:24,1
DA:26,1
DA:27,1
DA:28,1
DA:29,1
DA:30,19
DA:31,19
DA:32,19
DA:33,16
DA:34,16
DA:35,16
DA:36,16
DA:37,16
DA:38,16
DA:40,1
DA:41,1
DA:43,2
DA:44,2
DA:45,2
DA:55,1
DA:56,1
DA:57,1
DA:58,1
DA:59,1
DA:60,1
DA:61,1
DA:62,1
DA:63,1
DA:64,1
DA:66,0
DA:68,1
DA:71,1
DA:72,1
DA:73,1
DA:74,1
DA:75,1
DA:76,1
DA:77,1
DA:78,1
DA:79,1
DA:80,1
DA:82,1
DA:83,1
DA:84,1
DA:86,0
DA:88,1
DA:91,1
DA:92,1
DA:93,1
DA:94,1
BRF:0
BRH:0
LF:61
LH:59
end_of_record
SF:/Users/kuratateharuki/Desktop/RUM/src/format.rs
FN:72,_RNvNtNtCs3v8MvUUnobG_3RUM6format5testss_11test_format
FN:6,_RNvNtCs3v8MvUUnobG_3RUM6format11find_format
FN:51,_RNvXNtCs3v8MvUUnobG_3RUM6formatNtB2_6FormatNtNtCsfgdI4E623Ub_4core3fmt7Display3fmt
FNDA:1,_RNvNtNtCs3v8MvUUnobG_3RUM6format5testss_11test_format
FNDA:28,_RNvNtCs3v8MvUUnobG_3RUM6format11find_format
FNDA:9,_RNvXNtCs3v8MvUUnobG_3RUM6formatNtB2_6FormatNtNtCsfgdI4E623Ub_4core3fmt7Display3fmt
FNF:3
FNH:3
DA:6,28
DA:7,28
DA:8,26
DA:9,26
DA:10,26
DA:11,3
DA:12,23
DA:13,3
DA:14,20
DA:15,3
DA:16,17
DA:17,1
DA:18,16
DA:19,3
DA:20,13
DA:21,3
DA:22,10
DA:23,1
DA:24,9
DA:25,3
DA:26,6
DA:27,3
DA:29,3
DA:32,2
DA:34,28
DA:51,9
DA:52,9
DA:53,1
DA:54,1
DA:55,1
DA:56,1
DA:57,1
DA:58,0
DA:59,1
DA:60,0
DA:61,1
DA:62,2
DA:64,9
DA:72,1
DA:73,1
DA:74,1
DA:75,1
DA:76,1
DA:77,0
DA:78,1
DA:79,1
DA:80,0
DA:81,1
DA:82,1
DA:83,1
DA:84,0
DA:85,1
DA:86,1
DA:87,1
DA:88,0
DA:89,1
DA:90,1
DA:91,1
DA:92,0
DA:93,1
DA:94,1
DA:95,1
DA:96,0
DA:97,1
DA:98,1
DA:99,1
DA:100,0
DA:101,1
DA:102,1
DA:103,1
DA:104,0
DA:105,1
DA:106,1
DA:107,1
DA:109,0
DA:111,0
DA:112,1
BRF:0
BRH:0
LF:77
LH:65
end_of_record
SF:/Users/kuratateharuki/Desktop/RUM/src/main.rs
FN:13,_RNvCs3v8MvUUnobG_3RUM7perform
FN:29,_RNvCs3v8MvUUnobG_3RUM15perform_extract
FN:43,_RNvCs3v8MvUUnobG_3RUM12perform_list
FN:61,_RNvCs3v8MvUUnobG_3RUM15perform_archive
FN:72,_RNvCs3v8MvUUnobG_3RUM4main
FN:105,_RNvNtCs3v8MvUUnobG_3RUM5testss_8test_run
FNDA:0,_RNvCs3v8MvUUnobG_3RUM7perform
FNDA:0,_RNvCs3v8MvUUnobG_3RUM15perform_extract
FNDA:0,_RNvCs3v8MvUUnobG_3RUM12perform_list
FNDA:0,_RNvCs3v8MvUUnobG_3RUM15perform_archive
FNDA:0,_RNvCs3v8MvUUnobG_3RUM4main
FNDA:1,_RNvNtCs3v8MvUUnobG_3RUM5testss_8test_run
FNF:6
FNH:1
DA:13,0
DA:14,0
DA:15,0
DA:16,0
DA:17,0
DA:19,0
DA:20,0
DA:21,0
DA:23,0
DA:24,0
DA:27,0
DA:29,0
DA:30,0
DA:31,0
DA:32,0
DA:33,0
DA:34,0
DA:35,0
DA:36,0
DA:37,0
DA:38,0
DA:40,0
DA:41,0
DA:43,0
DA:44,0
DA:45,0
DA:46,0
DA:47,0
DA:48,0
DA:49,0
DA:50,0
DA:51,0
DA:52,0
DA:53,0
DA:54,0
DA:55,0
DA:56,0
DA:58,0
DA:59,0
DA:61,0
DA:62,0
DA:63,0
DA:64,0
DA:65,0
DA:66,0
DA:68,0
DA:70,0
DA:72,0
DA:73,0
DA:74,0
DA:75,0
DA:76,0
DA:78,0
DA:80,0
DA:81,0
DA:82,0
DA:84,0
DA:85,0
DA:86,0
DA:87,0
DA:88,0
DA:89,0
DA:90,0
DA:91,0
DA:93,0
DA:96,0
DA:105,1
DA:106,1
DA:107,1
DA:108,1
DA:109,1
DA:110,1
DA:111,1
DA:112,1
DA:113,1
DA:114,1
DA:115,1
DA:116,1
DA:117,1
DA:118,1
DA:119,1
DA:120,1
DA:121,1
DA:122,1
DA:123,1
DA:124,1
DA:125,1
DA:126,1
DA:127,1
BRF:0
BRH:0
LF:89
LH:23
end_of_record
SF:/Users/kuratateharuki/Desktop/RUM/src/verboser.rs
FN:11,_RNvNtCs3v8MvUUnobG_3RUM8verboser15create_verboser
FN:20,_RNvXNtCs3v8MvUUnobG_3RUM8verboserNtB2_13EmptyVerboserNtB2_8Verboser7verbose
FN:25,_RNvXs_NtCs3v8MvUUnobG_3RUM8verboserNtB4_14SimpleVerboserNtB4_8Verboser7verbose
FNDA:16,_RNvNtCs3v8MvUUnobG_3RUM8verboser15create_verboser
FNDA:70,_RNvXNtCs3v8MvUUnobG_3RUM8verboserNtB2_13EmptyVerboserNtB2_8Verboser7verbose
FNDA:0,_RNvXs_NtCs3v8MvUUnobG_3RUM8verboserNtB4_14SimpleVerboserNtB4_8Verboser7verbose
FNF:3
FNH:2
DA:11,16
DA:12,16
DA:13,0
DA:15,16
DA:17,16
DA:20,70
DA:21,70
DA:25,0
DA:26,0
DA:27,0
BRF:0
BRH:0
LF:10
LH:6
end_of_record